; ModuleID = 'source-C-CXX/38/1256.c'
source_filename = "source-C-CXX/38/1256.c"
target datalayout = "e-m:e-p270:32:32-p271:32:32-p272:64:64-i64:64-f80:128-n8:16:32:64-S128"
target triple = "x86_64-pc-linux-gnu"

@.str = private unnamed_addr constant [3 x i8] c"%d\00", align 1
@.str.1 = private unnamed_addr constant [18 x i8] c"%s %d %d %c %c %d\00", align 1
@.str.3 = private unnamed_addr constant [4 x i8] c"%d\0A\00", align 1

; Function Attrs: nofree nounwind sspstrong uwtable
define dso_local i32 @main() local_unnamed_addr #0 {
  %1 = alloca i32, align 4
  %2 = alloca i32, align 4
  %3 = alloca i32, align 4
  %4 = alloca i32, align 4
  %5 = alloca [21 x i8], align 16
  %6 = alloca [21 x i8], align 16
  %7 = alloca i8, align 1
  %8 = alloca i8, align 1
  %9 = bitcast i32* %1 to i8*
  call void @llvm.lifetime.start.p0i8(i64 4, i8* nonnull %9) #5
  %10 = bitcast i32* %2 to i8*
  call void @llvm.lifetime.start.p0i8(i64 4, i8* nonnull %10) #5
  %11 = bitcast i32* %3 to i8*
  call void @llvm.lifetime.start.p0i8(i64 4, i8* nonnull %11) #5
  %12 = bitcast i32* %4 to i8*
  call void @llvm.lifetime.start.p0i8(i64 4, i8* nonnull %12) #5
  %13 = getelementptr inbounds [21 x i8], [21 x i8]* %5, i64 0, i64 0
  call void @llvm.lifetime.start.p0i8(i64 21, i8* nonnull %13) #5
  %14 = getelementptr inbounds [21 x i8], [21 x i8]* %6, i64 0, i64 0
  call void @llvm.lifetime.start.p0i8(i64 21, i8* nonnull %14) #5
  call void @llvm.lifetime.start.p0i8(i64 1, i8* nonnull %7) #5
  call void @llvm.lifetime.start.p0i8(i64 1, i8* nonnull %8) #5
  %15 = call i32 (i8*, ...) @__isoc99_scanf(i8* getelementptr inbounds ([3 x i8], [3 x i8]* @.str, i64 0, i64 0), i32* nonnull %1)
  br label %16

16:                                               ; preds = %50, %0
  %17 = phi i32 [ 1, %0 ], [ %52, %50 ]
  %18 = phi i32 [ -1, %0 ], [ %51, %50 ]
  %19 = phi i32 [ 0, %0 ], [ %46, %50 ]
  %20 = call i32 (i8*, ...) @__isoc99_scanf(i8* getelementptr inbounds ([18 x i8], [18 x i8]* @.str.1, i64 0, i64 0), i8* nonnull %13, i32* nonnull %2, i32* nonnull %3, i8* nonnull %7, i8* nonnull %8, i32* nonnull %4)
  %21 = load i32, i32* %2, align 4, !tbaa !5
  %22 = icmp sgt i32 %21, 80
  %23 = load i32, i32* %4, align 4
  %24 = icmp sgt i32 %23, 0
  %25 = select i1 %22, i1 %24, i1 false
  %26 = select i1 %25, i32 8000, i32 0
  %27 = icmp sgt i32 %21, 85
  %28 = load i32, i32* %3, align 4
  %29 = icmp sgt i32 %28, 80
  %30 = select i1 %27, i1 %29, i1 false
  %31 = add nuw nsw i32 %26, 4000
  %32 = select i1 %30, i32 %31, i32 %26
  %33 = icmp sgt i32 %21, 90
  %34 = add nuw nsw i32 %32, 2000
  %35 = select i1 %33, i32 %34, i32 %32
  %36 = load i8, i8* %8, align 1
  %37 = icmp eq i8 %36, 89
  %38 = select i1 %27, i1 %37, i1 false
  %39 = add nuw nsw i32 %35, 1000
  %40 = select i1 %38, i32 %39, i32 %35
  %41 = load i8, i8* %7, align 1
  %42 = icmp eq i8 %41, 89
  %43 = select i1 %29, i1 %42, i1 false
  %44 = add nuw nsw i32 %40, 850
  %45 = select i1 %43, i32 %44, i32 %40
  %46 = add nsw i32 %45, %19
  %47 = icmp sgt i32 %45, %18
  br i1 %47, label %48, label %50

48:                                               ; preds = %16
  %49 = call i8* @strcpy(i8* noundef nonnull %14, i8* noundef nonnull %13) #5
  br label %50

50:                                               ; preds = %48, %16
  %51 = phi i32 [ %45, %48 ], [ %18, %16 ]
  %52 = add nuw nsw i32 %17, 1
  %53 = load i32, i32* %1, align 4, !tbaa !5
  %54 = icmp slt i32 %17, %53
  br i1 %54, label %16, label %55, !llvm.loop !9

55:                                               ; preds = %50
  %56 = call i32 @puts(i8* nonnull %14)
  %57 = call i32 (i8*, ...) @printf(i8* nonnull dereferenceable(1) getelementptr inbounds ([4 x i8], [4 x i8]* @.str.3, i64 0, i64 0), i32 %51)
  %58 = call i32 (i8*, ...) @printf(i8* nonnull dereferenceable(1) getelementptr inbounds ([4 x i8], [4 x i8]* @.str.3, i64 0, i64 0), i32 %46)
  call void @llvm.lifetime.end.p0i8(i64 1, i8* nonnull %8) #5
  call void @llvm.lifetime.end.p0i8(i64 1, i8* nonnull %7) #5
  call void @llvm.lifetime.end.p0i8(i64 21, i8* nonnull %14) #5
  call void @llvm.lifetime.end.p0i8(i64 21, i8* nonnull %13) #5
  call void @llvm.lifetime.end.p0i8(i64 4, i8* nonnull %12) #5
  call void @llvm.lifetime.end.p0i8(i64 4, i8* nonnull %11) #5
  call void @llvm.lifetime.end.p0i8(i64 4, i8* nonnull %10) #5
  call void @llvm.lifetime.end.p0i8(i64 4, i8* nonnull %9) #5
  ret i32 0
}

; Function Attrs: argmemonly mustprogress nofree nosync nounwind willreturn
declare void @llvm.lifetime.start.p0i8(i64 immarg, i8* nocapture) #1

; Function Attrs: nofree nounwind
declare noundef i32 @__isoc99_scanf(i8* nocapture noundef readonly, ...) local_unnamed_addr #2

; Function Attrs: argmemonly mustprogress nofree nounwind willreturn
declare i8* @strcpy(i8* noalias returned writeonly, i8* noalias nocapture readonly) local_unnamed_addr #3

; Function Attrs: nofree nounwind
declare noundef i32 @printf(i8* nocapture noundef readonly, ...) local_unnamed_addr #2

; Function Attrs: argmemonly mustprogress nofree nosync nounwind willreturn
declare void @llvm.lifetime.end.p0i8(i64 immarg, i8* nocapture) #1

; Function Attrs: nofree nounwind
declare noundef i32 @puts(i8* nocapture noundef readonly) local_unnamed_addr #4


!llvm.module.flags = !{!0, !1, !2, !3}
!llvm.ident = !{!4}

!0 = !{i32 1, !"wchar_size", i32 4}
!1 = !{i32 7, !"PIC Level", i32 2}
!2 = !{i32 7, !"PIE Level", i32 2}
!3 = !{i32 7, !"uwtable", i32 1}
!4 = !{!"clang version 13.0.0"}
!5 = !{!6, !6, i64 0}
!6 = !{!"int", !7, i64 0}
!7 = !{!"omnipotent char", !8, i64 0}
!8 = !{!"Simple C/C++ TBAA"}
!9 = distinct !{!9, !10}
!10 = !{!"llvm.loop.mustprogress"}
